target datalayout = "e-m:e-p270:32:32-p271:32:32-p272:64:64-i64:64-i128:128-f80:128-n8:16:32:64-S128"
target triple = "x86_64-pc-linux-gnu"

%struct.gxlstate_t = type { ptr, ptr, ptr, ptr, ptr, i8, i8 }

@.str = private unnamed_addr constant [5 x i8] c"node\00", align 1
@Level = internal global i32 0, align 4
@.str.1 = private unnamed_addr constant [45 x i8] c"<?xml version=\221.0\22 encoding=\22iso-8859-1\22?>\0A\00", align 1
@.str.2 = private unnamed_addr constant [7 x i8] c"<gxl>\0A\00", align 1
@.str.3 = private unnamed_addr constant [8 x i8] c"</gxl>\0A\00", align 1
@Dtoset = external global ptr, align 8
@nameDisc = internal global { i32, i32, i32, [4 x i8], ptr, ptr, ptr } { i32 16, i32 -1, i32 0, [4 x i8] zeroinitializer, ptr @make_nitem, ptr @free, ptr null }, align 8
@idDisc = internal global { i32, i32, i32, [4 x i8], ptr, ptr, ptr } { i32 16, i32 -1, i32 0, [4 x i8] zeroinitializer, ptr null, ptr @free_iditem, ptr null }, align 8
@.str.48 = private unnamed_addr constant [9 x i8] c"</node>\0A\00", align 1
@.str.66 = private unnamed_addr constant [10 x i8] c"</graph>\0A\00", align 1

; Function Attrs: nounwind uwtable
define internal void @tabover(ptr noundef %0) #0 {
  %2 = alloca ptr, align 8
  %3 = alloca i32, align 4
  store ptr %0, ptr %2, align 8, !tbaa !9
  call void @llvm.lifetime.start.p0(i64 4, ptr %3) #13
  %4 = load i32, ptr @Level, align 4, !tbaa !11
  store i32 %4, ptr %3, align 4, !tbaa !11
  br label %5

5:                                                ; preds = %9, %1
  %6 = load i32, ptr %3, align 4, !tbaa !11
  %7 = add nsw i32 %6, -1
  store i32 %7, ptr %3, align 4, !tbaa !11
  %8 = icmp ne i32 %6, 0
  br i1 %8, label %9, label %12

9:                                                ; preds = %5
  %10 = load ptr, ptr %2, align 8, !tbaa !9
  %11 = call i32 @putc(i32 noundef 9, ptr noundef %10)
  br label %5, !llvm.loop !79

12:                                               ; preds = %5
  call void @llvm.lifetime.end.p0(i64 4, ptr %3) #13
  ret void
}

; Function Attrs: nounwind uwtable
define internal void @freeState(ptr noundef byval(%struct.gxlstate_t) align 8 %0) #0 {
  %2 = getelementptr inbounds nuw %struct.gxlstate_t, ptr %0, i32 0, i32 0
  %3 = load ptr, ptr %2, align 8, !tbaa !14
  %4 = call i32 @dtclose(ptr noundef %3)
  %5 = getelementptr inbounds nuw %struct.gxlstate_t, ptr %0, i32 0, i32 1
  %6 = load ptr, ptr %5, align 8, !tbaa !17
  %7 = call i32 @dtclose(ptr noundef %6)
  %8 = getelementptr inbounds nuw %struct.gxlstate_t, ptr %0, i32 0, i32 2
  %9 = load ptr, ptr %8, align 8, !tbaa !18
  %10 = call i32 @dtclose(ptr noundef %9)
  %11 = getelementptr inbounds nuw %struct.gxlstate_t, ptr %0, i32 0, i32 3
  %12 = load ptr, ptr %11, align 8, !tbaa !19
  %13 = call i32 @dtclose(ptr noundef %12)
  ret void
}

; Function Attrs: nounwind uwtable
define internal void @writeTrl(ptr noundef %0, ptr noundef %1, i1 noundef zeroext %2) #0 {
  %4 = alloca ptr, align 8
  %5 = alloca ptr, align 8
  %6 = alloca i8, align 1
  store ptr %0, ptr %4, align 8, !tbaa !4
  store ptr %1, ptr %5, align 8, !tbaa !9
  %7 = zext i1 %2 to i8
  store i8 %7, ptr %6, align 1, !tbaa !33
  %8 = load ptr, ptr %5, align 8, !tbaa !9
  call void @tabover(ptr noundef %8)
  %9 = load ptr, ptr %5, align 8, !tbaa !9
  %10 = call i32 (ptr, ptr, ...) @fprintf(ptr noundef %9, ptr noundef @.str.66) #13
  %11 = load i32, ptr @Level, align 4, !tbaa !11
  %12 = add nsw i32 %11, -1
  store i32 %12, ptr @Level, align 4, !tbaa !11
  %13 = load i8, ptr %6, align 1, !tbaa !33, !range !35, !noundef !36
  %14 = trunc i8 %13 to i1
  br i1 %14, label %25, label %15

15:                                               ; preds = %3
  %16 = load ptr, ptr %4, align 8, !tbaa !4
  %17 = call ptr @agparent(ptr noundef %16)
  %18 = icmp ne ptr %17, null
  br i1 %18, label %19, label %25

19:                                               ; preds = %15
  %20 = load ptr, ptr %5, align 8, !tbaa !9
  call void @tabover(ptr noundef %20)
  %21 = load ptr, ptr %5, align 8, !tbaa !9
  %22 = call i32 (ptr, ptr, ...) @fprintf(ptr noundef %21, ptr noundef @.str.48) #13
  %23 = load i32, ptr @Level, align 4, !tbaa !11
  %24 = add nsw i32 %23, -1
  store i32 %24, ptr @Level, align 4, !tbaa !11
  br label %25

25:                                               ; preds = %19, %15, %3
  ret void
}

; Function Attrs: nounwind uwtable
define internal void @initState(ptr dead_on_unwind noalias writable sret(%struct.gxlstate_t) align 8 %0, ptr noundef %1) #0 {
  %3 = alloca ptr, align 8
  store ptr %1, ptr %3, align 8, !tbaa !4
  call void @llvm.memset.p0.i64(ptr align 8 %0, i8 0, i64 48, i1 false)
  %4 = load ptr, ptr @Dtoset, align 8, !tbaa !13
  %5 = call ptr @dtopen(ptr noundef @nameDisc, ptr noundef %4)
  %6 = getelementptr inbounds nuw %struct.gxlstate_t, ptr %0, i32 0, i32 0
  store ptr %5, ptr %6, align 8, !tbaa !14
  %7 = load ptr, ptr @Dtoset, align 8, !tbaa !13
  %8 = call ptr @dtopen(ptr noundef @nameDisc, ptr noundef %7)
  %9 = getelementptr inbounds nuw %struct.gxlstate_t, ptr %0, i32 0, i32 1
  store ptr %8, ptr %9, align 8, !tbaa !17
  %10 = load ptr, ptr @Dtoset, align 8, !tbaa !13
  %11 = call ptr @dtopen(ptr noundef @nameDisc, ptr noundef %10)
  %12 = getelementptr inbounds nuw %struct.gxlstate_t, ptr %0, i32 0, i32 2
  store ptr %11, ptr %12, align 8, !tbaa !18
  %13 = load ptr, ptr @Dtoset, align 8, !tbaa !13
  %14 = call ptr @dtopen(ptr noundef @idDisc, ptr noundef %13)
  %15 = getelementptr inbounds nuw %struct.gxlstate_t, ptr %0, i32 0, i32 3
  store ptr %14, ptr %15, align 8, !tbaa !19
  %16 = getelementptr inbounds nuw %struct.gxlstate_t, ptr %0, i32 0, i32 5
  store i8 0, ptr %16, align 8, !tbaa !20
  %17 = load ptr, ptr %3, align 8, !tbaa !4
  %18 = getelementptr inbounds nuw %struct.gxlstate_t, ptr %0, i32 0, i32 4
  store ptr %17, ptr %18, align 8, !tbaa !21
  %19 = load ptr, ptr %3, align 8, !tbaa !4
  %20 = call i32 @agisdirected(ptr noundef %19)
  %21 = icmp ne i32 %20, 0
  %22 = zext i1 %21 to i32
  %23 = trunc i32 %22 to i8
  %24 = getelementptr inbounds nuw %struct.gxlstate_t, ptr %0, i32 0, i32 6
  store i8 %23, ptr %24, align 1, !tbaa !22
  ret void
}

; Function Attrs: nounwind uwtable
define dso_local void @gv_to_gxl(ptr noundef %0, ptr noundef %1) #0 {
  %3 = alloca ptr, align 8
  %4 = alloca ptr, align 8
  %5 = alloca %struct.gxlstate_t, align 8
  store ptr %0, ptr %3, align 8, !tbaa !4
  store ptr %1, ptr %4, align 8, !tbaa !9
  call void @llvm.lifetime.start.p0(i64 48, ptr %5) #13
  %6 = load ptr, ptr %3, align 8, !tbaa !4
  call void @initState(ptr dead_on_unwind writable sret(%struct.gxlstate_t) align 8 %5, ptr noundef %6)
  %7 = load ptr, ptr %3, align 8, !tbaa !4
  call void @aginit(ptr noundef %7, i32 noundef 1, ptr noundef @.str, i32 noundef 24, i32 noundef 1)
  %8 = load ptr, ptr %3, align 8, !tbaa !4
  call void @iterateHdr(ptr noundef %5, ptr noundef %8)
  %9 = load ptr, ptr %3, align 8, !tbaa !4
  call void @iterateBody(ptr noundef %5, ptr noundef %9)
  store i32 0, ptr @Level, align 4, !tbaa !11
  %10 = load ptr, ptr %4, align 8, !tbaa !9
  %11 = call i32 (ptr, ptr, ...) @fprintf(ptr noundef %10, ptr noundef @.str.1) #13
  %12 = load ptr, ptr %4, align 8, !tbaa !9
  %13 = call i32 (ptr, ptr, ...) @fprintf(ptr noundef %12, ptr noundef @.str.2) #13
  %14 = load ptr, ptr %3, align 8, !tbaa !4
  %15 = load ptr, ptr %4, align 8, !tbaa !9
  call void @writeHdr(ptr noundef %5, ptr noundef %14, ptr noundef %15, i1 noundef zeroext true)
  %16 = load ptr, ptr %3, align 8, !tbaa !4
  %17 = load ptr, ptr %4, align 8, !tbaa !9
  call void @writeBody(ptr noundef %5, ptr noundef %16, ptr noundef %17)
  %18 = load ptr, ptr %3, align 8, !tbaa !4
  %19 = load ptr, ptr %4, align 8, !tbaa !9
  call void @writeTrl(ptr noundef %18, ptr noundef %19, i1 noundef zeroext true)
  %20 = load ptr, ptr %4, align 8, !tbaa !9
  %21 = call i32 (ptr, ptr, ...) @fprintf(ptr noundef %20, ptr noundef @.str.3) #13
  call void @freeState(ptr noundef byval(%struct.gxlstate_t) align 8 %5)
  call void @llvm.lifetime.end.p0(i64 48, ptr %5) #13
  ret void
}