; Function Attrs: nounwind uwtable
define dso_local void @gv_to_gxl(ptr noundef %0, ptr noundef %1) local_unnamed_addr #0 {
  %3 = alloca %struct.gxlstate_t, align 8
  call void @llvm.lifetime.start.p0(i64 48, ptr nonnull %3) #21
  tail call void @llvm.experimental.noalias.scope.decl(metadata !4)
  %4 = getelementptr inbounds nuw i8, ptr %3, i64 40
  store i64 0, ptr %4, align 8, !alias.scope !4
  %5 = load ptr, ptr @Dtoset, align 8, !tbaa !7, !noalias !4
  %6 = tail call ptr @dtopen(ptr noundef nonnull @nameDisc, ptr noundef %5) #21, !noalias !4
  store ptr %6, ptr %3, align 8, !tbaa !11, !alias.scope !4
  %7 = load ptr, ptr @Dtoset, align 8, !tbaa !7, !noalias !4
  %8 = tail call ptr @dtopen(ptr noundef nonnull @nameDisc, ptr noundef %7) #21, !noalias !4
  %9 = getelementptr inbounds nuw i8, ptr %3, i64 8
  store ptr %8, ptr %9, align 8, !tbaa !15, !alias.scope !4
  %10 = load ptr, ptr @Dtoset, align 8, !tbaa !7, !noalias !4
  %11 = tail call ptr @dtopen(ptr noundef nonnull @nameDisc, ptr noundef %10) #21, !noalias !4
  %12 = getelementptr inbounds nuw i8, ptr %3, i64 16
  store ptr %11, ptr %12, align 8, !tbaa !16, !alias.scope !4
  %13 = load ptr, ptr @Dtoset, align 8, !tbaa !7, !noalias !4
  %14 = tail call ptr @dtopen(ptr noundef nonnull @idDisc, ptr noundef %13) #21, !noalias !4
  %15 = getelementptr inbounds nuw i8, ptr %3, i64 24
  store ptr %14, ptr %15, align 8, !tbaa !17, !alias.scope !4
  %16 = getelementptr inbounds nuw i8, ptr %3, i64 32
  store ptr %0, ptr %16, align 8, !tbaa !18, !alias.scope !4
  %17 = tail call i32 @agisdirected(ptr noundef %0) #21, !noalias !4
  %18 = icmp ne i32 %17, 0
  %19 = zext i1 %18 to i8
  %20 = getelementptr inbounds nuw i8, ptr %3, i64 41
  store i8 %19, ptr %20, align 1, !tbaa !19, !alias.scope !4
  tail call void @aginit(ptr noundef %0, i32 noundef 1, ptr noundef nonnull @.str, i32 noundef 24, i32 noundef 1) #21
  call fastcc void @iterateHdr(ptr noundef %3, ptr noundef %0)
  call fastcc void @iterateBody(ptr noundef %3, ptr noundef %0)
  store i32 0, ptr @Level, align 4, !tbaa !20
  %21 = tail call i64 @fwrite(ptr nonnull @.str.1, i64 44, i64 1, ptr %1)
  %22 = tail call i64 @fwrite(ptr nonnull @.str.2, i64 6, i64 1, ptr %1)
  call fastcc void @writeHdr(ptr noundef %3, ptr noundef %0, ptr noundef %1, i1 noundef zeroext true)
  call fastcc void @writeBody(ptr noundef %3, ptr noundef %0, ptr noundef %1)
  %23 = load i32, ptr @Level, align 4, !tbaa !20
  %.not1.i.i = icmp eq i32 %23, 0
  br i1 %.not1.i.i, label %writeTrl.exit, label %.lr.ph.i.i

.lr.ph.i.i:                                       ; preds = %2, %.lr.ph.i.i
  %.02.i.i = phi i32 [ %24, %.lr.ph.i.i ], [ %23, %2 ]
  %24 = add nsw i32 %.02.i.i, -1
  %25 = tail call i32 @putc(i32 noundef 9, ptr noundef %1)
  %.not.i.i = icmp eq i32 %24, 0
  br i1 %.not.i.i, label %writeTrl.exit, label %.lr.ph.i.i, !llvm.loop !22

writeTrl.exit:                                    ; preds = %.lr.ph.i.i, %2
  %26 = tail call i64 @fwrite(ptr nonnull @.str.66, i64 9, i64 1, ptr %1)
  %27 = load i32, ptr @Level, align 4, !tbaa !20
  %28 = add nsw i32 %27, -1
  store i32 %28, ptr @Level, align 4, !tbaa !20
  %29 = tail call i64 @fwrite(ptr nonnull @.str.3, i64 7, i64 1, ptr %1)
  %.sroa.0.0.copyload = load ptr, ptr %3, align 8
  %.sroa.4.0.copyload = load ptr, ptr %9, align 8
  %.sroa.5.0.copyload = load ptr, ptr %12, align 8
  %.sroa.6.0.copyload = load ptr, ptr %15, align 8
  %30 = tail call i32 @dtclose(ptr noundef %.sroa.0.0.copyload) #21
  %31 = tail call i32 @dtclose(ptr noundef %.sroa.4.0.copyload) #21
  %32 = tail call i32 @dtclose(ptr noundef %.sroa.5.0.copyload) #21
  %33 = tail call i32 @dtclose(ptr noundef %.sroa.6.0.copyload) #21
  call void @llvm.lifetime.end.p0(i64 48, ptr nonnull %3) #21
  ret void
}